; Function Attrs: mustprogress nofree norecurse nosync nounwind willreturn memory(argmem: write) uwtable
define internal noundef zeroext i1 @"_ZNSt17_Function_handlerIFSt6vectorINSt7__cxx1112basic_stringIcSt11char_traitsIcESaIcEEESaIS6_EERKN5clang6driver8MultilibEEZL19findMipsCsMultilibsRKNSA_6DriverERKS8_RN12_GLOBAL__N_117FilterNonExistentERNSA_17DetectedMultilibsEE3$_0E10_M_managerERSt9_Any_dataRKSR_St18_Manager_operation"(ptr nocapture noundef nonnull writeonly align 8 dereferenceable(16) %0, ptr noundef nonnull align 8 dereferenceable(16) %1, i32 noundef %2) #12 align 2 {
  switch i32 %2, label %"_ZNSt14_Function_base13_Base_managerIZL19findMipsCsMultilibsRKN5clang6driver6DriverERKSt6vectorINSt7__cxx1112basic_stringIcSt11char_traitsIcESaIcEEESaISC_EERN12_GLOBAL__N_117FilterNonExistentERNS2_17DetectedMultilibsEE3$_0E10_M_managerERSt9_Any_dataRKSO_St18_Manager_operation.exit" [
    i32 1, label %"_ZNSt14_Function_base13_Base_managerIZL19findMipsCsMultilibsRKN5clang6driver6DriverERKSt6vectorINSt7__cxx1112basic_stringIcSt11char_traitsIcESaIcEEESaISC_EERN12_GLOBAL__N_117FilterNonExistentERNS2_17DetectedMultilibsEE3$_0E10_M_managerERSt9_Any_dataRKSO_St18_Manager_operation.exit.sink.split"
    i32 0, label %4
  ]

4:                                                ; preds = %3
  br label %"_ZNSt14_Function_base13_Base_managerIZL19findMipsCsMultilibsRKN5clang6driver6DriverERKSt6vectorINSt7__cxx1112basic_stringIcSt11char_traitsIcESaIcEEESaISC_EERN12_GLOBAL__N_117FilterNonExistentERNS2_17DetectedMultilibsEE3$_0E10_M_managerERSt9_Any_dataRKSO_St18_Manager_operation.exit.sink.split"

"_ZNSt14_Function_base13_Base_managerIZL19findMipsCsMultilibsRKN5clang6driver6DriverERKSt6vectorINSt7__cxx1112basic_stringIcSt11char_traitsIcESaIcEEESaISC_EERN12_GLOBAL__N_117FilterNonExistentERNS2_17DetectedMultilibsEE3$_0E10_M_managerERSt9_Any_dataRKSO_St18_Manager_operation.exit.sink.split": ; preds = %3, %4
  %.sink = phi ptr [ null, %4 ], [ %1, %3 ]
  store ptr %.sink, ptr %0, align 8
  br label %"_ZNSt14_Function_base13_Base_managerIZL19findMipsCsMultilibsRKN5clang6driver6DriverERKSt6vectorINSt7__cxx1112basic_stringIcSt11char_traitsIcESaIcEEESaISC_EERN12_GLOBAL__N_117FilterNonExistentERNS2_17DetectedMultilibsEE3$_0E10_M_managerERSt9_Any_dataRKSO_St18_Manager_operation.exit"

"_ZNSt14_Function_base13_Base_managerIZL19findMipsCsMultilibsRKN5clang6driver6DriverERKSt6vectorINSt7__cxx1112basic_stringIcSt11char_traitsIcESaIcEEESaISC_EERN12_GLOBAL__N_117FilterNonExistentERNS2_17DetectedMultilibsEE3$_0E10_M_managerERSt9_Any_dataRKSO_St18_Manager_operation.exit": ; preds = %"_ZNSt14_Function_base13_Base_managerIZL19findMipsCsMultilibsRKN5clang6driver6DriverERKSt6vectorINSt7__cxx1112basic_stringIcSt11char_traitsIcESaIcEEESaISC_EERN12_GLOBAL__N_117FilterNonExistentERNS2_17DetectedMultilibsEE3$_0E10_M_managerERSt9_Any_dataRKSO_St18_Manager_operation.exit.sink.split", %3
  ret i1 false
}